; Function Attrs: mustprogress uwtable
define noundef nonnull ptr @_ZN3zmq31shared_message_memory_allocator8allocateEv(ptr noundef nonnull align 8 captures(none) dereferenceable(40) initializes((8, 16), (24, 32)) %0) local_unnamed_addr #2 align 2 personality ptr @__gxx_personality_v0 {
  %2 = load ptr, ptr %0, align 8, !tbaa !13
  %.not = icmp eq ptr %2, null
  br i1 %.not, label %.thread, label %3

3:                                                ; preds = %1
  %4 = atomicrmw sub ptr %2, i32 1 acq_rel, align 4
  %.not7 = icmp eq i32 %4, 1
  br i1 %.not7, label %7, label %.thread9

.thread9:                                         ; preds = %3
  %5 = getelementptr inbounds nuw i8, ptr %0, i64 24
  store ptr null, ptr %5, align 8, !tbaa !11
  %6 = getelementptr inbounds nuw i8, ptr %0, i64 8
  store i64 0, ptr %6, align 8
  br label %.thread

7:                                                ; preds = %3
  %.pr = load ptr, ptr %0, align 8, !tbaa !13
  %.not4 = icmp eq ptr %.pr, null
  br i1 %.not4, label %.thread, label %23

.thread:                                          ; preds = %.thread9, %1, %7
  %8 = getelementptr inbounds nuw i8, ptr %0, i64 16
  %9 = load i64, ptr %8, align 8, !tbaa !3
  %10 = add i64 %9, 8
  %11 = getelementptr inbounds nuw i8, ptr %0, i64 32
  %12 = load i64, ptr %11, align 8, !tbaa !12
  %13 = mul i64 %12, 40
  %14 = add i64 %10, %13
  %15 = tail call noalias ptr @malloc(i64 noundef %14) #12
  store ptr %15, ptr %0, align 8, !tbaa !13
  %.not5 = icmp eq ptr %15, null
  br i1 %.not5, label %16, label %21, !prof !14

16:                                               ; preds = %.thread
  %17 = load ptr, ptr @stderr, align 8, !tbaa !15
  %18 = tail call i32 (ptr, ptr, ...) @fprintf(ptr noundef %17, ptr noundef nonnull @.str, ptr noundef nonnull @.str.1, i32 noundef 58) #13
  %19 = load ptr, ptr @stderr, align 8, !tbaa !15
  %20 = tail call i32 @fflush(ptr noundef %19)
  tail call void @_ZN3zmq9zmq_abortEPKc(ptr noundef nonnull @.str.2)
  %.pre = load ptr, ptr %0, align 8, !tbaa !13
  br label %21

21:                                               ; preds = %16, %.thread
  %22 = phi ptr [ %.pre, %16 ], [ %15, %.thread ]
  store i32 1, ptr %22, align 4, !tbaa !17
  br label %24

23:                                               ; preds = %7
  store atomic i32 1, ptr %.pr seq_cst, align 4
  %.pre8 = load ptr, ptr %0, align 8, !tbaa !13
  br label %24

24:                                               ; preds = %23, %21
  %25 = phi ptr [ %.pre8, %23 ], [ %22, %21 ]
  %26 = getelementptr inbounds nuw i8, ptr %0, i64 16
  %27 = load i64, ptr %26, align 8, !tbaa !3
  %28 = getelementptr inbounds nuw i8, ptr %0, i64 8
  store i64 %27, ptr %28, align 8, !tbaa !20
  %29 = getelementptr inbounds nuw i8, ptr %25, i64 8
  %30 = getelementptr inbounds nuw i8, ptr %29, i64 %27
  %31 = getelementptr inbounds nuw i8, ptr %0, i64 24
  store ptr %30, ptr %31, align 8, !tbaa !11
  ret ptr %29
}